target datalayout = "e-m:e-p270:32:32-p271:32:32-p272:64:64-i64:64-i128:128-f80:128-n8:16:32:64-S128"
target triple = "x86_64-unknown-linux-gnu"

%"class.google::protobuf::internal::SymbolBase" = type { i8 }
%"class.absl::lts_20230802::log_internal::NullStream" = type { i8 }
%"class.google::protobuf::FieldDescriptor" = type { %"class.google::protobuf::internal::SymbolBase", i8, i8, i8, i32, ptr, ptr, ptr, ptr, %union.anon.230, %union.anon.231, ptr, ptr, ptr, %union.anon.232 }
%union.anon.230 = type { ptr }
%union.anon.231 = type { ptr }
%union.anon.232 = type { i64 }
%"class.google::protobuf::Descriptor" = type { %"class.google::protobuf::internal::SymbolBase", i8, i16, i32, ptr, ptr, ptr, ptr, ptr, ptr, ptr, ptr, ptr, ptr, ptr, ptr, ptr, ptr, i32, i32, i32, i32, i32, i32, i32, i32 }
%class.anon.263 = type { ptr, ptr }

; Function Attrs: mustprogress nounwind uwtable
define linkonce_odr hidden noundef nonnull align 1 dereferenceable(1) ptr @_ZN4absl12lts_2023080212log_internal10NullStream14InternalStreamEv(ptr noundef nonnull align 1 dereferenceable(1) %this) #5 comdat align 2 {
entry:
  %this.addr = alloca ptr, align 8
  store ptr %this, ptr %this.addr, align 8
  %this1 = load ptr, ptr %this.addr, align 8
  ret ptr %this1
}

; Function Attrs: mustprogress nounwind uwtable
define linkonce_odr hidden noundef ptr @_ZNK6google8protobuf10Descriptor5fieldEi(ptr noundef nonnull align 8 dereferenceable(152) %this, i32 noundef %index) #5 comdat align 2 {
entry:
  %this.addr = alloca ptr, align 8
  %index.addr = alloca i32, align 4
  %ref.tmp = alloca %"class.absl::lts_20230802::log_internal::NullStream", align 1
  %ref.tmp4 = alloca %"class.absl::lts_20230802::log_internal::NullStream", align 1
  store ptr %this, ptr %this.addr, align 8
  store i32 %index, ptr %index.addr, align 4
  %this1 = load ptr, ptr %this.addr, align 8
  br label %while.cond

while.cond:                                       ; preds = %while.body, %entry
  br i1 false, label %while.body, label %while.end

while.body:                                       ; preds = %while.cond
  %call = call noundef nonnull align 1 dereferenceable(1) ptr @_ZN4absl12lts_2023080212log_internal10NullStream14InternalStreamEv(ptr noundef nonnull align 1 dereferenceable(1) %ref.tmp)
  br label %while.cond, !llvm.loop !23

while.end:                                        ; preds = %while.cond
  br label %while.cond2

while.cond2:                                      ; preds = %while.body3, %while.end
  br i1 false, label %while.body3, label %while.end6

while.body3:                                      ; preds = %while.cond2
  %call5 = call noundef nonnull align 1 dereferenceable(1) ptr @_ZN4absl12lts_2023080212log_internal10NullStream14InternalStreamEv(ptr noundef nonnull align 1 dereferenceable(1) %ref.tmp4)
  br label %while.cond2, !llvm.loop !24

while.end6:                                       ; preds = %while.cond2
  %fields_ = getelementptr inbounds %"class.google::protobuf::Descriptor", ptr %this1, i32 0, i32 10
  %0 = load ptr, ptr %fields_, align 8
  %1 = load i32, ptr %index.addr, align 4
  %idx.ext = sext i32 %1 to i64
  %add.ptr = getelementptr inbounds %"class.google::protobuf::FieldDescriptor", ptr %0, i64 %idx.ext
  ret ptr %add.ptr
}

; Function Attrs: mustprogress nounwind uwtable
define linkonce_odr hidden noundef i32 @_ZNK6google8protobuf10Descriptor11field_countEv(ptr noundef nonnull align 8 dereferenceable(152) %this) #5 comdat align 2 {
entry:
  %this.addr = alloca ptr, align 8
  store ptr %this, ptr %this.addr, align 8
  %this1 = load ptr, ptr %this.addr, align 8
  %field_count_ = getelementptr inbounds %"class.google::protobuf::Descriptor", ptr %this1, i32 0, i32 3
  %0 = load i32, ptr %field_count_, align 4
  ret i32 %0
}

; Function Attrs: mustprogress uwtable
define internal void @"_ZZN6google8protobuf8compiler3cpp13FileGenerator29GetCrossFileReferencesForFileEPKNS0_14FileDescriptorEPNS3_19CrossFileReferencesEENK3$_0clEPKNS0_15FieldDescriptorE"(ptr noundef nonnull align 8 dereferenceable(16) %this, ptr noundef %field) #4 align 2 {
entry:
  %this.addr = alloca ptr, align 8
  %field.addr = alloca ptr, align 8
  store ptr %this, ptr %this.addr, align 8
  store ptr %field, ptr %field.addr, align 8
  %this1 = load ptr, ptr %this.addr, align 8
  %0 = getelementptr inbounds %class.anon.263, ptr %this1, i32 0, i32 0
  %1 = load ptr, ptr %0, align 8
  %2 = load ptr, ptr %field.addr, align 8
  %3 = getelementptr inbounds %class.anon.263, ptr %this1, i32 0, i32 1
  %4 = load ptr, ptr %3, align 8
  call void @_ZN6google8protobuf8compiler3cpp13FileGenerator30GetCrossFileReferencesForFieldEPKNS0_15FieldDescriptorEPNS3_19CrossFileReferencesE(ptr noundef nonnull align 8 dereferenceable(752) %1, ptr noundef %2, ptr noundef %4)
  ret void
}

; Function Attrs: mustprogress nounwind uwtable
define linkonce_odr hidden noundef ptr @_ZNK6google8protobuf10Descriptor9extensionEi(ptr noundef nonnull align 8 dereferenceable(152) %this, i32 noundef %index) #5 comdat align 2 {
entry:
  %this.addr = alloca ptr, align 8
  %index.addr = alloca i32, align 4
  %ref.tmp = alloca %"class.absl::lts_20230802::log_internal::NullStream", align 1
  %ref.tmp4 = alloca %"class.absl::lts_20230802::log_internal::NullStream", align 1
  store ptr %this, ptr %this.addr, align 8
  store i32 %index, ptr %index.addr, align 4
  %this1 = load ptr, ptr %this.addr, align 8
  br label %while.cond

while.cond:                                       ; preds = %while.body, %entry
  br i1 false, label %while.body, label %while.end

while.body:                                       ; preds = %while.cond
  %call = call noundef nonnull align 1 dereferenceable(1) ptr @_ZN4absl12lts_2023080212log_internal10NullStream14InternalStreamEv(ptr noundef nonnull align 1 dereferenceable(1) %ref.tmp)
  br label %while.cond, !llvm.loop !194

while.end:                                        ; preds = %while.cond
  br label %while.cond2

while.cond2:                                      ; preds = %while.body3, %while.end
  br i1 false, label %while.body3, label %while.end6

while.body3:                                      ; preds = %while.cond2
  %call5 = call noundef nonnull align 1 dereferenceable(1) ptr @_ZN4absl12lts_2023080212log_internal10NullStream14InternalStreamEv(ptr noundef nonnull align 1 dereferenceable(1) %ref.tmp4)
  br label %while.cond2, !llvm.loop !195

while.end6:                                       ; preds = %while.cond2
  %extensions_ = getelementptr inbounds %"class.google::protobuf::Descriptor", ptr %this1, i32 0, i32 15
  %0 = load ptr, ptr %extensions_, align 8
  %1 = load i32, ptr %index.addr, align 4
  %idx.ext = sext i32 %1 to i64
  %add.ptr = getelementptr inbounds %"class.google::protobuf::FieldDescriptor", ptr %0, i64 %idx.ext
  ret ptr %add.ptr
}

; Function Attrs: mustprogress nounwind uwtable
define linkonce_odr hidden noundef i32 @_ZNK6google8protobuf10Descriptor15extension_countEv(ptr noundef nonnull align 8 dereferenceable(152) %this) #5 comdat align 2 {
entry:
  %this.addr = alloca ptr, align 8
  store ptr %this, ptr %this.addr, align 8
  %this1 = load ptr, ptr %this.addr, align 8
  %extension_count_ = getelementptr inbounds %"class.google::protobuf::Descriptor", ptr %this1, i32 0, i32 23
  %0 = load i32, ptr %extension_count_, align 4
  ret i32 %0
}

; Function Attrs: mustprogress nounwind uwtable
define linkonce_odr hidden noundef ptr @_ZNK6google8protobuf10Descriptor11nested_typeEi(ptr noundef nonnull align 8 dereferenceable(152) %this, i32 noundef %index) #5 comdat align 2 {
entry:
  %this.addr = alloca ptr, align 8
  %index.addr = alloca i32, align 4
  %ref.tmp = alloca %"class.absl::lts_20230802::log_internal::NullStream", align 1
  %ref.tmp4 = alloca %"class.absl::lts_20230802::log_internal::NullStream", align 1
  store ptr %this, ptr %this.addr, align 8
  store i32 %index, ptr %index.addr, align 4
  %this1 = load ptr, ptr %this.addr, align 8
  br label %while.cond

while.cond:                                       ; preds = %while.body, %entry
  br i1 false, label %while.body, label %while.end

while.body:                                       ; preds = %while.cond
  %call = call noundef nonnull align 1 dereferenceable(1) ptr @_ZN4absl12lts_2023080212log_internal10NullStream14InternalStreamEv(ptr noundef nonnull align 1 dereferenceable(1) %ref.tmp)
  br label %while.cond, !llvm.loop !149

while.end:                                        ; preds = %while.cond
  br label %while.cond2

while.cond2:                                      ; preds = %while.body3, %while.end
  br i1 false, label %while.body3, label %while.end6

while.body3:                                      ; preds = %while.cond2
  %call5 = call noundef nonnull align 1 dereferenceable(1) ptr @_ZN4absl12lts_2023080212log_internal10NullStream14InternalStreamEv(ptr noundef nonnull align 1 dereferenceable(1) %ref.tmp4)
  br label %while.cond2, !llvm.loop !150

while.end6:                                       ; preds = %while.cond2
  %nested_types_ = getelementptr inbounds %"class.google::protobuf::Descriptor", ptr %this1, i32 0, i32 12
  %0 = load ptr, ptr %nested_types_, align 8
  %1 = load i32, ptr %index.addr, align 4
  %idx.ext = sext i32 %1 to i64
  %add.ptr = getelementptr inbounds %"class.google::protobuf::Descriptor", ptr %0, i64 %idx.ext
  ret ptr %add.ptr
}

; Function Attrs: mustprogress nounwind uwtable
define linkonce_odr hidden noundef i32 @_ZNK6google8protobuf10Descriptor17nested_type_countEv(ptr noundef nonnull align 8 dereferenceable(152) %this) #5 comdat align 2 {
entry:
  %this.addr = alloca ptr, align 8
  store ptr %this, ptr %this.addr, align 8
  %this1 = load ptr, ptr %this.addr, align 8
  %nested_type_count_ = getelementptr inbounds %"class.google::protobuf::Descriptor", ptr %this1, i32 0, i32 20
  %0 = load i32, ptr %nested_type_count_, align 8
  ret i32 %0
}

; Function Attrs: mustprogress uwtable
define internal void @"_ZN6google8protobuf8compiler3cpp12ForEachFieldIZNS2_13FileGenerator29GetCrossFileReferencesForFileEPKNS0_14FileDescriptorEPNS4_19CrossFileReferencesEE3$_0EEvPKNS0_10DescriptorEOT_"(ptr noundef %d, ptr noundef nonnull align 8 dereferenceable(16) %func) #4 {
entry:
  %d.addr = alloca ptr, align 8
  %func.addr = alloca ptr, align 8
  %i = alloca i32, align 4
  %i2 = alloca i32, align 4
  %i11 = alloca i32, align 4
  store ptr %d, ptr %d.addr, align 8
  store ptr %func, ptr %func.addr, align 8
  store i32 0, ptr %i, align 4
  br label %for.cond

for.cond:                                         ; preds = %for.inc, %entry
  %0 = load i32, ptr %i, align 4
  %1 = load ptr, ptr %d.addr, align 8
  %call = call noundef i32 @_ZNK6google8protobuf10Descriptor17nested_type_countEv(ptr noundef nonnull align 8 dereferenceable(152) %1)
  %cmp = icmp slt i32 %0, %call
  br i1 %cmp, label %for.body, label %for.end

for.body:                                         ; preds = %for.cond
  %2 = load ptr, ptr %d.addr, align 8
  %3 = load i32, ptr %i, align 4
  %call1 = call noundef ptr @_ZNK6google8protobuf10Descriptor11nested_typeEi(ptr noundef nonnull align 8 dereferenceable(152) %2, i32 noundef %3)
  %4 = load ptr, ptr %func.addr, align 8
  call void @"_ZN6google8protobuf8compiler3cpp12ForEachFieldIZNS2_13FileGenerator29GetCrossFileReferencesForFileEPKNS0_14FileDescriptorEPNS4_19CrossFileReferencesEE3$_0EEvPKNS0_10DescriptorEOT_"(ptr noundef %call1, ptr noundef nonnull align 8 dereferenceable(16) %4)
  br label %for.inc

for.inc:                                          ; preds = %for.body
  %5 = load i32, ptr %i, align 4
  %inc = add nsw i32 %5, 1
  store i32 %inc, ptr %i, align 4
  br label %for.cond, !llvm.loop !191

for.end:                                          ; preds = %for.cond
  store i32 0, ptr %i2, align 4
  br label %for.cond3

for.cond3:                                        ; preds = %for.inc8, %for.end
  %6 = load i32, ptr %i2, align 4
  %7 = load ptr, ptr %d.addr, align 8
  %call4 = call noundef i32 @_ZNK6google8protobuf10Descriptor15extension_countEv(ptr noundef nonnull align 8 dereferenceable(152) %7)
  %cmp5 = icmp slt i32 %6, %call4
  br i1 %cmp5, label %for.body6, label %for.end10

for.body6:                                        ; preds = %for.cond3
  %8 = load ptr, ptr %func.addr, align 8
  %9 = load ptr, ptr %d.addr, align 8
  %10 = load i32, ptr %i2, align 4
  %call7 = call noundef ptr @_ZNK6google8protobuf10Descriptor9extensionEi(ptr noundef nonnull align 8 dereferenceable(152) %9, i32 noundef %10)
  call void @"_ZZN6google8protobuf8compiler3cpp13FileGenerator29GetCrossFileReferencesForFileEPKNS0_14FileDescriptorEPNS3_19CrossFileReferencesEENK3$_0clEPKNS0_15FieldDescriptorE"(ptr noundef nonnull align 8 dereferenceable(16) %8, ptr noundef %call7)
  br label %for.inc8

for.inc8:                                         ; preds = %for.body6
  %11 = load i32, ptr %i2, align 4
  %inc9 = add nsw i32 %11, 1
  store i32 %inc9, ptr %i2, align 4
  br label %for.cond3, !llvm.loop !192

for.end10:                                        ; preds = %for.cond3
  store i32 0, ptr %i11, align 4
  br label %for.cond12

for.cond12:                                       ; preds = %for.inc17, %for.end10
  %12 = load i32, ptr %i11, align 4
  %13 = load ptr, ptr %d.addr, align 8
  %call13 = call noundef i32 @_ZNK6google8protobuf10Descriptor11field_countEv(ptr noundef nonnull align 8 dereferenceable(152) %13)
  %cmp14 = icmp slt i32 %12, %call13
  br i1 %cmp14, label %for.body15, label %for.end19

for.body15:                                       ; preds = %for.cond12
  %14 = load ptr, ptr %func.addr, align 8
  %15 = load ptr, ptr %d.addr, align 8
  %16 = load i32, ptr %i11, align 4
  %call16 = call noundef ptr @_ZNK6google8protobuf10Descriptor5fieldEi(ptr noundef nonnull align 8 dereferenceable(152) %15, i32 noundef %16)
  call void @"_ZZN6google8protobuf8compiler3cpp13FileGenerator29GetCrossFileReferencesForFileEPKNS0_14FileDescriptorEPNS3_19CrossFileReferencesEENK3$_0clEPKNS0_15FieldDescriptorE"(ptr noundef nonnull align 8 dereferenceable(16) %14, ptr noundef %call16)
  br label %for.inc17

for.inc17:                                        ; preds = %for.body15
  %17 = load i32, ptr %i11, align 4
  %inc18 = add nsw i32 %17, 1
  store i32 %inc18, ptr %i11, align 4
  br label %for.cond12, !llvm.loop !193

for.end19:                                        ; preds = %for.cond12
  ret void
}